(lp1
(dp2
S'nf_ingredient_statement'
p3
V
sS'item_name'
p4
VOutback Sirloin, 9 Oz
p5
sS'brand_name'
p6
VOutback Steakhouse
p7
sS'nf_cholesterol'
p8
I125
sS'nf_calories'
p9
I380
sS'item_description'
p10
VSIGNATURE STEAKS - Outback Special 9 oz
p11
sS'nf_sodium'
p12
I340
sa(dp13
g3
V
sg4
VOutback Sirloin, 6 Oz
p14
sg6
VOutback Steakhouse
p15
sg8
I85
sg9
I250
sg10
VSIGNATURE STEAKS - Outback Special 6 oz
p16
sg12
I230
sa(dp17
g3
V
sg4
VOutback Flat Iron
p18
sg6
VOutback Steakhouse
p19
sg8
I150
sg9
I480
sg10
V
sg12
I1290
sa(dp20
g3
V
sg4
VOutback Calzone
p21
sg6
VNick-N-Willy's Pizza
p22
sg8
I35
sg9
I280
sg10
VCalzones - Outback Calzone
p23
sg12
I540
sa(dp24
g3
V
sg4
VOutback Sirloin, 12 Oz
p25
sg6
VOutback Steakhouse
p26
sg8
I170
sg9
I510
sg10
VSIGNATURE STEAKS - Outback Special 12 oz
p27
sg12
I450
sa(dp28
g3
V
sg4
VOutback Pizza, Personal
p29
sg6
VNick-N-Willy's Pizza
p30
sg8
I25
sg9
I200
sg10
VBaked Personal Pizzas - outback
p31
sg12
I460
sa(dp32
g3
V
sg4
VOutback Pizza, Medium
p33
sg6
VNick-N-Willy's Pizza
p34
sg8
I35
sg9
I240
sg10
VMEDIUM PIZZAS - outback
p35
sg12
I470
sa(dp36
g3
V
sg4
VOutback Pizza, Large
p37
sg6
VNick-N-Willy's Pizza
p38
sg8
I30
sg9
I230
sg10
VLARGE PIZZAS - outback
p39
sg12
I430
sa(dp40
g3
VMaize Starch, Raw Sugar, Brown Rice Flour, Pea Flour, Palm Vegetable Oil, Rice Syrup, Cocoa Powder 4%, Psyllium 2%, Raising Agent: Sodium Bicarbonate. Calcium Carbonate, Emulsifier: Monoglycerides from Vegetable, Vegetable Gum; Guar, Salt, Vanilla.
p41
sg4
VCookies, Kids Outback Animals Chocolate
p42
sg6
VOrgran
p43
sg8
I0
sg9
I68
sg10
VKids Outback Animals Chocolate
p44
sg12
I36
sa(dp45
g3
V
sg4
VHouse Salad
p46
sg6
VOutback Steakhouse
p47
sg8
I10
sg9
I110
sg10
VFRESHLY MADE SIDES - House Salad
p48
sg12
I130
sa(dp49
g3
V
sg4
VSesame Salad
p50
sg6
VOutback Steakhouse
p51
sg8
I45
sg9
I250
sg10
V
sg12
I540
sa(dp52
g3
V
sg4
VOutback Pizza, Family
p53
sg6
VNick-N-Willy's Pizza
p54
sg8
I35
sg9
I230
sg10
VFAMILY PIZZAS - outback
p55
sg12
I430
sa(dp56
g3
V
sg4
VThe Outbacker Burger Without Cheese
p57
sg6
VOutback Steakhouse
p58
sg8
I130
sg9
I620
sg10
VBURGERS & SANDWICHES - The Outbacker Burger
p59
sg12
I830
sa(dp60
g3
V
sg4
VBloomin' Onion
p61
sg6
VOutback Steakhouse
p62
sg8
I130
sg9
I1950
sg10
VAUSSIE-TIZERS TO SHARE - Bloomin' Onion&reg;
p63
sg12
I3840
sa(dp64
g3
V
sg4
VFirecracker Salmon
p65
sg6
VOutback Steakhouse
p66
sg8
I70
sg9
I480
sg10
V
sg12
I870
sa(dp67
g3
V
sg4
VPork Porterhouse
p68
sg6
VOutback Steakhouse
p69
sg8
I175
sg9
I510
sg10
V
sg12
I1380
sa(dp70
g3
VMilled Rice (87%), Maize Meal (12%), (Spinach, Beetroot) (1%). Gluten free.
p71
sg4
VVegetable Pasta Shapes, Kids, Outback Animals
p72
sg6
VOrgran
p73
sg8
I0
sg9
I131
sg10
VKids, Outback Animals
p74
sg12
I4
sa(dp75
g3
V
sg4
VDouble Burger
p76
sg6
VOutback Steakhouse
p77
sg8
I155
sg9
I930
sg10
VBURGERS & SANDWICHES - Double Burger
p78
sg12
I1280
sa(dp79
g3
V
sg4
VSauteed Mushrooms
p80
sg6
VOutback Steakhouse
p81
sg8
I0
sg9
I130
sg10
V
sg12
I680
sa(dp82
g3
V
sg4
VRibeye Melt
p83
sg6
VOutback Steakhouse
p84
sg8
I190
sg9
I1030
sg10
V
sg12
I1600
sa(dp85
g3
V
sg4
VAussie Fries
p86
sg6
VOutback Steakhouse
p87
sg8
I15
sg9
I320
sg10
VFRESHLY MADE SIDES - Aussie Fries
p88
sg12
I410
sa(dp89
g3
V
sg4
VCaesar Salad
p90
sg6
VOutback Steakhouse
p91
sg8
I5
sg9
I100
sg10
VFRESHLY MADE SIDES - Caesar Salad
p92
sg12
I130
sa(dp93
g3
V
sg4
VGarlic Mashed Potatoes
p94
sg6
VOutback Steakhouse
p95
sg8
I10
sg9
I280
sg10
VFRESHLY MADE SIDES - Garlic Mashed Potatoes
p96
sg12
I1040
sa(dp97
g3
V
sg4
VThe Bloomin' Burger
p98
sg6
VOutback Steakhouse
p99
sg8
I180
sg9
I1080
sg10
V
sg12
I1830
sa(dp100
g3
V
sg4
VTomato Mozzarella Caprese
p101
sg6
VOutback Steakhouse
p102
sg8
I40
sg9
I600
sg10
V
sg12
I980
sa(dp103
g3
V
sg4
VChicken Tender Platter
p104
sg6
VOutback Steakhouse
p105
sg8
I125
sg9
I1010
sg10
V
sg12
I1620
sa(dp106
g3
V
sg4
VGrilled Asparagus
p107
sg6
VOutback Steakhouse
p108
sg8
I0
sg9
I60
sg10
VFRESHLY MADE SIDES - Grilled Asparagus
p109
sg12
I220
sa(dp110
g3
V
sg4
VBloom Petals
p111
sg6
VOutback Steakhouse
p112
sg8
I35
sg9
I550
sg10
V
sg12
I1040
sa(dp113
g3
V
sg4
VBroccoli & Cheese
p114
sg6
VOutback Steakhouse
p115
sg8
I65
sg9
I380
sg10
V
sg12
I940
sa(dp116
g3
V
sg4
VWings
p117
sg6
VOutback Steakhouse
p118
sg8
I240
sg9
I1160
sg10
VAUSSIE-TIZERS TO SHARE - Wings
p119
sg12
I2450
sa(dp120
g3
V
sg4
VAlice Springs Chicken
p121
sg6
VOutback Steakhouse
p122
sg8
I205
sg9
I750
sg10
VOUTBACK FAVORITES - Alice Springs Chicken&reg;
p123
sg12
I1550
sa(dp124
g3
V
sg4
VTeriyaki Steak Medallions
p125
sg6
VOutback Steakhouse
p126
sg8
I100
sg9
I310
sg10
VSPECIALTY CUTS & COMBOS - Teriyaki Filet Medallions
p127
sg12
I1070
sa(dp128
g3
V
sg4
VFrench Onion Soup
p129
sg6
VOutback Steakhouse
p130
sg8
I50
sg9
I420
sg10
V
sg12
I2120
sa(dp131
g3
V
sg4
VAussie Chicken Tacos
p132
sg6
VOutback Steakhouse
p133
sg8
I195
sg9
I1040
sg10
V
sg12
I1780
sa(dp134
g3
V
sg4
VBlue Cheese Crumbles
p135
sg6
VOutback Steakhouse
p136
sg8
I15
sg9
I100
sg10
VAdd On Mates - Blue Cheese Crumb Topping
p137
sg12
I340
sa(dp138
g3
V
sg4
VCrab & Avocado Stack
p139
sg6
VOutback Steakhouse
p140
sg8
I65
sg9
I580
sg10
VAUSSIE-TIZERS TO SHARE - Crab & Avocado Stack - Aussi-tizers&reg; to Share
p141
sg12
I1320
sa(dp142
g3
V
sg4
VNew Zealand Lamb
p143
sg6
VOutback Steakhouse
p144
sg8
I165
sg9
I600
sg10
VOUTBACK FAVORITES - New Zealand Rack Of Lamb
p145
sg12
I700
sa(dp146
g3
V
sg4
VBloom Petals Topping
p147
sg6
VOutback Steakhouse
p148
sg8
I5
sg9
I100
sg10
V
sg12
I190
sa(dp149
g3
V
sg4
VAussie Steak Tacos
p150
sg6
VOutback Steakhouse
p151
sg8
I195
sg9
I1120
sg10
V
sg12
I1580
sa(dp152
g3
V
sg4
VLoaded Mashed Potatoes
p153
sg6
VOutback Steakhouse
p154
sg8
I25
sg9
I350
sg10
V
sg12
I1190
sa(dp155
g3
V
sg4
VAussie Fish Tacos
p156
sg6
VOutback Steakhouse
p157
sg8
I125
sg9
I870
sg10
V
sg12
I1290
sa(dp158
g3
V
sg4
VSteakhouse Mac & Cheese
p159
sg6
VOutback Steakhouse
p160
sg8
I140
sg9
I840
sg10
V
sg12
I1630
sa(dp161
g3
V
sg4
VGreat Barrier Trio
p162
sg6
VOutback Steakhouse
p163
sg8
I105
sg9
I690
sg10
VAussietizers - Crab Stack
p164
sg12
I1620
sa(dp165
g3
V
sg4
VBaby Back Ribs
p166
sg6
VOutback Steakhouse
p167
sg8
I200
sg9
I880
sg10
VOutback Favorites - Baby Back Ribs Full Order
p168
sg12
I940
sa(dp169
g3
V
sg4
VFresh Steamed Broccoli
p170
sg6
VOutback Steakhouse
p171
sg8
I0
sg9
I140
sg10
VFRESHLY MADE SIDES - Fresh Steamed Broccoli
p172
sg12
I290
sa(dp173
g3
V
sg4
VAussie Cheese Fries, Small
p174
sg6
VOutback Steakhouse
p175
sg8
I140
sg9
I1160
sg10
VAUSSIE-TIZERS TO SHARE - Aussie Cheese Fries Small
p176
sg12
I1680
sa(dp177
g3
V
sg4
VVictoria's Filet Mignon, 6 Oz
p178
sg6
VOutback Steakhouse
p179
sg8
I75
sg9
I220
sg10
VSIGNATURE STEAKS - Victoria's Filet 6 oz
p180
sg12
I210
sa(dp181
g3
V
sg4
VChocolate Thunder From Down Under
p182
sg6
VOutback Steakhouse
p183
sg8
I355
sg9
I1560
sg10
VIRRESISTIBLE DESSERTS - Chocolate Thunder From Down Under
p184
sg12
I630
sa(dp185
g3
Nsg4
VOutback Beans with Chewy Black Centers, Australian Style
p186
sg6
VWiley Wallaby
p187
sg8
I0
sg9
I140
sg10
Nsg12
I15
sa(dp188
g3
V
sg4
VCrispy Chicken Sandwich
p189
sg6
VOutback Steakhouse
p190
sg8
I85
sg9
I780
sg10
VBURGERS & SANDWICHES - Crispy Chicken Sandwich
p191
sg12
I2430
sa(dp192
g3
V
sg4
VOutback Sirloin, 9 Oz
p193
sg6
VOutback Steakhouse
p194
sg8
I125
sg9
I380
sg10
VSIGNATURE STEAKS - Outback Special 9 oz
p195
sg12
I340
sa(dp196
g3
V
sg4
VOutback Sirloin, 6 Oz
p197
sg6
VOutback Steakhouse
p198
sg8
I85
sg9
I250
sg10
VSIGNATURE STEAKS - Outback Special 6 oz
p199
sg12
I230
sa(dp200
g3
V
sg4
VOutback Flat Iron
p201
sg6
VOutback Steakhouse
p202
sg8
I150
sg9
I480
sg10
V
sg12
I1290
sa(dp203
g3
V
sg4
VOutback Calzone
p204
sg6
VNick-N-Willy's Pizza
p205
sg8
I35
sg9
I280
sg10
VCalzones - Outback Calzone
p206
sg12
I540
sa(dp207
g3
V
sg4
VOutback Sirloin, 12 Oz
p208
sg6
VOutback Steakhouse
p209
sg8
I170
sg9
I510
sg10
VSIGNATURE STEAKS - Outback Special 12 oz
p210
sg12
I450
sa(dp211
g3
V
sg4
VOutback Pizza, Personal
p212
sg6
VNick-N-Willy's Pizza
p213
sg8
I25
sg9
I200
sg10
VBaked Personal Pizzas - outback
p214
sg12
I460
sa(dp215
g3
V
sg4
VOutback Pizza, Medium
p216
sg6
VNick-N-Willy's Pizza
p217
sg8
I35
sg9
I240
sg10
VMEDIUM PIZZAS - outback
p218
sg12
I470
sa(dp219
g3
V
sg4
VOutback Pizza, Large
p220
sg6
VNick-N-Willy's Pizza
p221
sg8
I30
sg9
I230
sg10
VLARGE PIZZAS - outback
p222
sg12
I430
sa(dp223
g3
VMaize Starch, Raw Sugar, Brown Rice Flour, Pea Flour, Palm Vegetable Oil, Rice Syrup, Cocoa Powder 4%, Psyllium 2%, Raising Agent: Sodium Bicarbonate. Calcium Carbonate, Emulsifier: Monoglycerides from Vegetable, Vegetable Gum; Guar, Salt, Vanilla.
p224
sg4
VCookies, Kids Outback Animals Chocolate
p225
sg6
VOrgran
p226
sg8
I0
sg9
I68
sg10
VKids Outback Animals Chocolate
p227
sg12
I36
sa(dp228
g3
V
sg4
VHouse Salad
p229
sg6
VOutback Steakhouse
p230
sg8
I10
sg9
I110
sg10
VFRESHLY MADE SIDES - House Salad
p231
sg12
I130
sa(dp232
g3
V
sg4
VSesame Salad
p233
sg6
VOutback Steakhouse
p234
sg8
I45
sg9
I250
sg10
V
sg12
I540
sa(dp235
g3
V
sg4
VOutback Pizza, Family
p236
sg6
VNick-N-Willy's Pizza
p237
sg8
I35
sg9
I230
sg10
VFAMILY PIZZAS - outback
p238
sg12
I430
sa(dp239
g3
V
sg4
VThe Outbacker Burger Without Cheese
p240
sg6
VOutback Steakhouse
p241
sg8
I130
sg9
I620
sg10
VBURGERS & SANDWICHES - The Outbacker Burger
p242
sg12
I830
sa(dp243
g3
V
sg4
VBloomin' Onion
p244
sg6
VOutback Steakhouse
p245
sg8
I130
sg9
I1950
sg10
VAUSSIE-TIZERS TO SHARE - Bloomin' Onion&reg;
p246
sg12
I3840
sa(dp247
g3
V
sg4
VFirecracker Salmon
p248
sg6
VOutback Steakhouse
p249
sg8
I70
sg9
I480
sg10
V
sg12
I870
sa(dp250
g3
V
sg4
VPork Porterhouse
p251
sg6
VOutback Steakhouse
p252
sg8
I175
sg9
I510
sg10
V
sg12
I1380
sa(dp253
g3
VMilled Rice (87%), Maize Meal (12%), (Spinach, Beetroot) (1%). Gluten free.
p254
sg4
VVegetable Pasta Shapes, Kids, Outback Animals
p255
sg6
VOrgran
p256
sg8
I0
sg9
I131
sg10
VKids, Outback Animals
p257
sg12
I4
sa(dp258
g3
V
sg4
VDouble Burger
p259
sg6
VOutback Steakhouse
p260
sg8
I155
sg9
I930
sg10
VBURGERS & SANDWICHES - Double Burger
p261
sg12
I1280
sa(dp262
g3
V
sg4
VSauteed Mushrooms
p263
sg6
VOutback Steakhouse
p264
sg8
I0
sg9
I130
sg10
V
sg12
I680
sa(dp265
g3
V
sg4
VAussie Fries
p266
sg6
VOutback Steakhouse
p267
sg8
I15
sg9
I320
sg10
VFRESHLY MADE SIDES - Aussie Fries
p268
sg12
I410
sa(dp269
g3
V
sg4
VCaesar Salad
p270
sg6
VOutback Steakhouse
p271
sg8
I5
sg9
I100
sg10
VFRESHLY MADE SIDES - Caesar Salad
p272
sg12
I130
sa(dp273
g3
V
sg4
VRibeye Melt
p274
sg6
VOutback Steakhouse
p275
sg8
I190
sg9
I1030
sg10
V
sg12
I1600
sa(dp276
g3
V
sg4
VGarlic Mashed Potatoes
p277
sg6
VOutback Steakhouse
p278
sg8
I10
sg9
I280
sg10
VFRESHLY MADE SIDES - Garlic Mashed Potatoes
p279
sg12
I1040
sa(dp280
g3
V
sg4
VThe Bloomin' Burger
p281
sg6
VOutback Steakhouse
p282
sg8
I180
sg9
I1080
sg10
V
sg12
I1830
sa(dp283
g3
V
sg4
VTomato Mozzarella Caprese
p284
sg6
VOutback Steakhouse
p285
sg8
I40
sg9
I600
sg10
V
sg12
I980
sa(dp286
g3
V
sg4
VChicken Tender Platter
p287
sg6
VOutback Steakhouse
p288
sg8
I125
sg9
I1010
sg10
V
sg12
I1620
sa(dp289
g3
V
sg4
VAlice Springs Chicken
p290
sg6
VOutback Steakhouse
p291
sg8
I205
sg9
I750
sg10
VOUTBACK FAVORITES - Alice Springs Chicken&reg;
p292
sg12
I1550
sa(dp293
g3
V
sg4
VTeriyaki Steak Medallions
p294
sg6
VOutback Steakhouse
p295
sg8
I100
sg9
I310
sg10
VSPECIALTY CUTS & COMBOS - Teriyaki Filet Medallions
p296
sg12
I1070
sa(dp297
g3
V
sg4
VFrench Onion Soup
p298
sg6
VOutback Steakhouse
p299
sg8
I50
sg9
I420
sg10
V
sg12
I2120
sa(dp300
g3
V
sg4
VAussie Chicken Tacos
p301
sg6
VOutback Steakhouse
p302
sg8
I195
sg9
I1040
sg10
V
sg12
I1780
sa(dp303
g3
V
sg4
VGrilled Asparagus
p304
sg6
VOutback Steakhouse
p305
sg8
I0
sg9
I60
sg10
VFRESHLY MADE SIDES - Grilled Asparagus
p306
sg12
I220
sa(dp307
g3
V
sg4
VBloom Petals
p308
sg6
VOutback Steakhouse
p309
sg8
I35
sg9
I550
sg10
V
sg12
I1040
sa(dp310
g3
V
sg4
VBroccoli & Cheese
p311
sg6
VOutback Steakhouse
p312
sg8
I65
sg9
I380
sg10
V
sg12
I940
sa(dp313
g3
V
sg4
VWings
p314
sg6
VOutback Steakhouse
p315
sg8
I240
sg9
I1160
sg10
VAUSSIE-TIZERS TO SHARE - Wings
p316
sg12
I2450
sa(dp317
g3
V
sg4
VBlue Cheese Crumbles
p318
sg6
VOutback Steakhouse
p319
sg8
I15
sg9
I100
sg10
VAdd On Mates - Blue Cheese Crumb Topping
p320
sg12
I340
sa(dp321
g3
V
sg4
VCrab & Avocado Stack
p322
sg6
VOutback Steakhouse
p323
sg8
I65
sg9
I580
sg10
VAUSSIE-TIZERS TO SHARE - Crab & Avocado Stack - Aussi-tizers&reg; to Share
p324
sg12
I1320
sa(dp325
g3
V
sg4
VNew Zealand Lamb
p326
sg6
VOutback Steakhouse
p327
sg8
I165
sg9
I600
sg10
VOUTBACK FAVORITES - New Zealand Rack Of Lamb
p328
sg12
I700
sa(dp329
g3
V
sg4
VBloom Petals Topping
p330
sg6
VOutback Steakhouse
p331
sg8
I5
sg9
I100
sg10
V
sg12
I190
sa(dp332
g3
V
sg4
VAussie Steak Tacos
p333
sg6
VOutback Steakhouse
p334
sg8
I195
sg9
I1120
sg10
V
sg12
I1580
sa(dp335
g3
V
sg4
VGreat Barrier Trio
p336
sg6
VOutback Steakhouse
p337
sg8
I105
sg9
I690
sg10
VAussietizers - Crab Stack
p338
sg12
I1620
sa(dp339
g3
V
sg4
VBaby Back Ribs
p340
sg6
VOutback Steakhouse
p341
sg8
I200
sg9
I880
sg10
VOutback Favorites - Baby Back Ribs Full Order
p342
sg12
I940
sa(dp343
g3
V
sg4
VFresh Steamed Broccoli
p344
sg6
VOutback Steakhouse
p345
sg8
I0
sg9
I140
sg10
VFRESHLY MADE SIDES - Fresh Steamed Broccoli
p346
sg12
I290
sa(dp347
g3
V
sg4
VLoaded Mashed Potatoes
p348
sg6
VOutback Steakhouse
p349
sg8
I25
sg9
I350
sg10
V
sg12
I1190
sa(dp350
g3
V
sg4
VAussie Fish Tacos
p351
sg6
VOutback Steakhouse
p352
sg8
I125
sg9
I870
sg10
V
sg12
I1290
sa(dp353
g3
V
sg4
VSteakhouse Mac & Cheese
p354
sg6
VOutback Steakhouse
p355
sg8
I140
sg9
I840
sg10
V
sg12
I1630
sa(dp356
g3
V
sg4
VAussie Cheese Fries, Small
p357
sg6
VOutback Steakhouse
p358
sg8
I140
sg9
I1160
sg10
VAUSSIE-TIZERS TO SHARE - Aussie Cheese Fries Small
p359
sg12
I1680
sa(dp360
g3
V
sg4
VVictoria's Filet Mignon, 6 Oz
p361
sg6
VOutback Steakhouse
p362
sg8
I75
sg9
I220
sg10
VSIGNATURE STEAKS - Victoria's Filet 6 oz
p363
sg12
I210
sa(dp364
g3
V
sg4
VChocolate Thunder From Down Under
p365
sg6
VOutback Steakhouse
p366
sg8
I355
sg9
I1560
sg10
VIRRESISTIBLE DESSERTS - Chocolate Thunder From Down Under
p367
sg12
I630
sa(dp368
g3
Nsg4
VOutback Beans with Chewy Black Centers, Australian Style
p369
sg6
VWiley Wallaby
p370
sg8
I0
sg9
I140
sg10
Nsg12
I15
sa(dp371
g3
V
sg4
VGrilled Shrimp Add-On
p372
sg6
VOutback Steakhouse
p373
sg8
I115
sg9
I170
sg10
VAdd On Mates - 4 Grilled Shrimp
p374
sg12
I570
sa(dp375
g3
V
sg4
VOutback Sirloin, 9 Oz
p376
sg6
VOutback Steakhouse
p377
sg8
I125
sg9
I380
sg10
VSIGNATURE STEAKS - Outback Special 9 oz
p378
sg12
I340
sa(dp379
g3
V
sg4
VOutback Sirloin, 6 Oz
p380
sg6
VOutback Steakhouse
p381
sg8
I85
sg9
I250
sg10
VSIGNATURE STEAKS - Outback Special 6 oz
p382
sg12
I230
sa(dp383
g3
V
sg4
VOutback Flat Iron
p384
sg6
VOutback Steakhouse
p385
sg8
I150
sg9
I480
sg10
V
sg12
I1290
sa(dp386
g3
V
sg4
VOutback Calzone
p387
sg6
VNick-N-Willy's Pizza
p388
sg8
I35
sg9
I280
sg10
VCalzones - Outback Calzone
p389
sg12
I540
sa(dp390
g3
V
sg4
VOutback Sirloin, 12 Oz
p391
sg6
VOutback Steakhouse
p392
sg8
I170
sg9
I510
sg10
VSIGNATURE STEAKS - Outback Special 12 oz
p393
sg12
I450
sa(dp394
g3
V
sg4
VOutback Pizza, Personal
p395
sg6
VNick-N-Willy's Pizza
p396
sg8
I25
sg9
I200
sg10
VBaked Personal Pizzas - outback
p397
sg12
I460
sa(dp398
g3
V
sg4
VOutback Pizza, Medium
p399
sg6
VNick-N-Willy's Pizza
p400
sg8
I35
sg9
I240
sg10
VMEDIUM PIZZAS - outback
p401
sg12
I470
sa(dp402
g3
V
sg4
VOutback Pizza, Large
p403
sg6
VNick-N-Willy's Pizza
p404
sg8
I30
sg9
I230
sg10
VLARGE PIZZAS - outback
p405
sg12
I430
sa(dp406
g3
VMaize Starch, Raw Sugar, Brown Rice Flour, Pea Flour, Palm Vegetable Oil, Rice Syrup, Cocoa Powder 4%, Psyllium 2%, Raising Agent: Sodium Bicarbonate. Calcium Carbonate, Emulsifier: Monoglycerides from Vegetable, Vegetable Gum; Guar, Salt, Vanilla.
p407
sg4
VCookies, Kids Outback Animals Chocolate
p408
sg6
VOrgran
p409
sg8
I0
sg9
I68
sg10
VKids Outback Animals Chocolate
p410
sg12
I36
sa(dp411
g3
V
sg4
VOutback Pizza, Family
p412
sg6
VNick-N-Willy's Pizza
p413
sg8
I35
sg9
I230
sg10
VFAMILY PIZZAS - outback
p414
sg12
I430
sa(dp415
g3
V
sg4
VHouse Salad
p416
sg6
VOutback Steakhouse
p417
sg8
I10
sg9
I110
sg10
VFRESHLY MADE SIDES - House Salad
p418
sg12
I130
sa(dp419
g3
V
sg4
VSesame Salad
p420
sg6
VOutback Steakhouse
p421
sg8
I45
sg9
I250
sg10
V
sg12
I540
sa(dp422
g3
V
sg4
VThe Outbacker Burger Without Cheese
p423
sg6
VOutback Steakhouse
p424
sg8
I130
sg9
I620
sg10
VBURGERS & SANDWICHES - The Outbacker Burger
p425
sg12
I830
sa(dp426
g3
VMilled Rice (87%), Maize Meal (12%), (Spinach, Beetroot) (1%). Gluten free.
p427
sg4
VVegetable Pasta Shapes, Kids, Outback Animals
p428
sg6
VOrgran
p429
sg8
I0
sg9
I131
sg10
VKids, Outback Animals
p430
sg12
I4
sa(dp431
g3
V
sg4
VBloomin' Onion
p432
sg6
VOutback Steakhouse
p433
sg8
I130
sg9
I1950
sg10
VAUSSIE-TIZERS TO SHARE - Bloomin' Onion&reg;
p434
sg12
I3840
sa(dp435
g3
V
sg4
VFirecracker Salmon
p436
sg6
VOutback Steakhouse
p437
sg8
I70
sg9
I480
sg10
V
sg12
I870
sa(dp438
g3
V
sg4
VPork Porterhouse
p439
sg6
VOutback Steakhouse
p440
sg8
I175
sg9
I510
sg10
V
sg12
I1380
sa(dp441
g3
V
sg4
VRibeye Melt
p442
sg6
VOutback Steakhouse
p443
sg8
I190
sg9
I1030
sg10
V
sg12
I1600
sa(dp444
g3
V
sg4
VAussie Fries
p445
sg6
VOutback Steakhouse
p446
sg8
I15
sg9
I320
sg10
VFRESHLY MADE SIDES - Aussie Fries
p447
sg12
I410
sa(dp448
g3
V
sg4
VCaesar Salad
p449
sg6
VOutback Steakhouse
p450
sg8
I5
sg9
I100
sg10
VFRESHLY MADE SIDES - Caesar Salad
p451
sg12
I130
sa(dp452
g3
V
sg4
VDouble Burger
p453
sg6
VOutback Steakhouse
p454
sg8
I155
sg9
I930
sg10
VBURGERS & SANDWICHES - Double Burger
p455
sg12
I1280
sa(dp456
g3
V
sg4
VSauteed Mushrooms
p457
sg6
VOutback Steakhouse
p458
sg8
I0
sg9
I130
sg10
V
sg12
I680
sa(dp459
g3
V
sg4
VGarlic Mashed Potatoes
p460
sg6
VOutback Steakhouse
p461
sg8
I10
sg9
I280
sg10
VFRESHLY MADE SIDES - Garlic Mashed Potatoes
p462
sg12
I1040
sa(dp463
g3
V
sg4
VThe Bloomin' Burger
p464
sg6
VOutback Steakhouse
p465
sg8
I180
sg9
I1080
sg10
V
sg12
I1830
sa(dp466
g3
V
sg4
VTomato Mozzarella Caprese
p467
sg6
VOutback Steakhouse
p468
sg8
I40
sg9
I600
sg10
V
sg12
I980
sa(dp469
g3
V
sg4
VChicken Tender Platter
p470
sg6
VOutback Steakhouse
p471
sg8
I125
sg9
I1010
sg10
V
sg12
I1620
sa(dp472
g3
V
sg4
VGrilled Asparagus
p473
sg6
VOutback Steakhouse
p474
sg8
I0
sg9
I60
sg10
VFRESHLY MADE SIDES - Grilled Asparagus
p475
sg12
I220
sa(dp476
g3
V
sg4
VBloom Petals
p477
sg6
VOutback Steakhouse
p478
sg8
I35
sg9
I550
sg10
V
sg12
I1040
sa(dp479
g3
V
sg4
VBroccoli & Cheese
p480
sg6
VOutback Steakhouse
p481
sg8
I65
sg9
I380
sg10
V
sg12
I940
sa(dp482
g3
V
sg4
VWings
p483
sg6
VOutback Steakhouse
p484
sg8
I240
sg9
I1160
sg10
VAUSSIE-TIZERS TO SHARE - Wings
p485
sg12
I2450
sa(dp486
g3
V
sg4
VAlice Springs Chicken
p487
sg6
VOutback Steakhouse
p488
sg8
I205
sg9
I750
sg10
VOUTBACK FAVORITES - Alice Springs Chicken&reg;
p489
sg12
I1550
sa(dp490
g3
V
sg4
VTeriyaki Steak Medallions
p491
sg6
VOutback Steakhouse
p492
sg8
I100
sg9
I310
sg10
VSPECIALTY CUTS & COMBOS - Teriyaki Filet Medallions
p493
sg12
I1070
sa(dp494
g3
V
sg4
VFrench Onion Soup
p495
sg6
VOutback Steakhouse
p496
sg8
I50
sg9
I420
sg10
V
sg12
I2120
sa(dp497
g3
V
sg4
VAussie Chicken Tacos
p498
sg6
VOutback Steakhouse
p499
sg8
I195
sg9
I1040
sg10
V
sg12
I1780
sa(dp500
g3
V
sg4
VLoaded Mashed Potatoes
p501
sg6
VOutback Steakhouse
p502
sg8
I25
sg9
I350
sg10
V
sg12
I1190
sa(dp503
g3
V
sg4
VAussie Fish Tacos
p504
sg6
VOutback Steakhouse
p505
sg8
I125
sg9
I870
sg10
V
sg12
I1290
sa(dp506
g3
V
sg4
VSteakhouse Mac & Cheese
p507
sg6
VOutback Steakhouse
p508
sg8
I140
sg9
I840
sg10
V
sg12
I1630
sa(dp509
g3
V
sg4
VGreat Barrier Trio
p510
sg6
VOutback Steakhouse
p511
sg8
I105
sg9
I690
sg10
VAussietizers - Crab Stack
p512
sg12
I1620
sa(dp513
g3
V
sg4
VBaby Back Ribs
p514
sg6
VOutback Steakhouse
p515
sg8
I200
sg9
I880
sg10
VOutback Favorites - Baby Back Ribs Full Order
p516
sg12
I940
sa(dp517
g3
V
sg4
VFresh Steamed Broccoli
p518
sg6
VOutback Steakhouse
p519
sg8
I0
sg9
I140
sg10
VFRESHLY MADE SIDES - Fresh Steamed Broccoli
p520
sg12
I290
sa(dp521
g3
V
sg4
VBlue Cheese Crumbles
p522
sg6
VOutback Steakhouse
p523
sg8
I15
sg9
I100
sg10
VAdd On Mates - Blue Cheese Crumb Topping
p524
sg12
I340
sa(dp525
g3
V
sg4
VCrab & Avocado Stack
p526
sg6
VOutback Steakhouse
p527
sg8
I65
sg9
I580
sg10
VAUSSIE-TIZERS TO SHARE - Crab & Avocado Stack - Aussi-tizers&reg; to Share
p528
sg12
I1320
sa(dp529
g3
V
sg4
VNew Zealand Lamb
p530
sg6
VOutback Steakhouse
p531
sg8
I165
sg9
I600
sg10
VOUTBACK FAVORITES - New Zealand Rack Of Lamb
p532
sg12
I700
sa(dp533
g3
V
sg4
VBloom Petals Topping
p534
sg6
VOutback Steakhouse
p535
sg8
I5
sg9
I100
sg10
V
sg12
I190
sa(dp536
g3
V
sg4
VAussie Steak Tacos
p537
sg6
VOutback Steakhouse
p538
sg8
I195
sg9
I1120
sg10
V
sg12
I1580
sa(dp539
g3
V
sg4
VAussie Cheese Fries, Small
p540
sg6
VOutback Steakhouse
p541
sg8
I140
sg9
I1160
sg10
VAUSSIE-TIZERS TO SHARE - Aussie Cheese Fries Small
p542
sg12
I1680
sa(dp543
g3
V
sg4
VVictoria's Filet Mignon, 6 Oz
p544
sg6
VOutback Steakhouse
p545
sg8
I75
sg9
I220
sg10
VSIGNATURE STEAKS - Victoria's Filet 6 oz
p546
sg12
I210
sa(dp547
g3
V
sg4
VChocolate Thunder From Down Under
p548
sg6
VOutback Steakhouse
p549
sg8
I355
sg9
I1560
sg10
VIRRESISTIBLE DESSERTS - Chocolate Thunder From Down Under
p550
sg12
I630
sa(dp551
g3
V
sg4
VCrispy Chicken Sandwich
p552
sg6
VOutback Steakhouse
p553
sg8
I85
sg9
I780
sg10
VBURGERS & SANDWICHES - Crispy Chicken Sandwich
p554
sg12
I2430
sa(dp555
g3
V
sg4
VChocolate Mini Milkshake
p556
sg6
VOutback Steakhouse
p557
sg8
I90
sg9
I600
sg10
VMINI MILKSHAKES - Chocolate Mini Milkshake
p558
sg12
I200
sa(dp559
g3
V
sg4
VOutback Sirloin, 9 Oz
p560
sg6
VOutback Steakhouse
p561
sg8
I125
sg9
I380
sg10
VSIGNATURE STEAKS - Outback Special 9 oz
p562
sg12
I340
sa(dp563
g3
V
sg4
VOutback Sirloin, 6 Oz
p564
sg6
VOutback Steakhouse
p565
sg8
I85
sg9
I250
sg10
VSIGNATURE STEAKS - Outback Special 6 oz
p566
sg12
I230
sa(dp567
g3
V
sg4
VOutback Flat Iron
p568
sg6
VOutback Steakhouse
p569
sg8
I150
sg9
I480
sg10
V
sg12
I1290
sa(dp570
g3
V
sg4
VOutback Calzone
p571
sg6
VNick-N-Willy's Pizza
p572
sg8
I35
sg9
I280
sg10
VCalzones - Outback Calzone
p573
sg12
I540
sa(dp574
g3
V
sg4
VOutback Sirloin, 12 Oz
p575
sg6
VOutback Steakhouse
p576
sg8
I170
sg9
I510
sg10
VSIGNATURE STEAKS - Outback Special 12 oz
p577
sg12
I450
sa(dp578
g3
V
sg4
VOutback Pizza, Personal
p579
sg6
VNick-N-Willy's Pizza
p580
sg8
I25
sg9
I200
sg10
VBaked Personal Pizzas - outback
p581
sg12
I460
sa(dp582
g3
V
sg4
VOutback Pizza, Medium
p583
sg6
VNick-N-Willy's Pizza
p584
sg8
I35
sg9
I240
sg10
VMEDIUM PIZZAS - outback
p585
sg12
I470
sa(dp586
g3
V
sg4
VOutback Pizza, Large
p587
sg6
VNick-N-Willy's Pizza
p588
sg8
I30
sg9
I230
sg10
VLARGE PIZZAS - outback
p589
sg12
I430
sa(dp590
g3
VMaize Starch, Raw Sugar, Brown Rice Flour, Pea Flour, Palm Vegetable Oil, Rice Syrup, Cocoa Powder 4%, Psyllium 2%, Raising Agent: Sodium Bicarbonate. Calcium Carbonate, Emulsifier: Monoglycerides from Vegetable, Vegetable Gum; Guar, Salt, Vanilla.
p591
sg4
VCookies, Kids Outback Animals Chocolate
p592
sg6
VOrgran
p593
sg8
I0
sg9
I68
sg10
VKids Outback Animals Chocolate
p594
sg12
I36
sa(dp595
g3
V
sg4
VHouse Salad
p596
sg6
VOutback Steakhouse
p597
sg8
I10
sg9
I110
sg10
VFRESHLY MADE SIDES - House Salad
p598
sg12
I130
sa(dp599
g3
V
sg4
VSesame Salad
p600
sg6
VOutback Steakhouse
p601
sg8
I45
sg9
I250
sg10
V
sg12
I540
sa(dp602
g3
V
sg4
VOutback Pizza, Family
p603
sg6
VNick-N-Willy's Pizza
p604
sg8
I35
sg9
I230
sg10
VFAMILY PIZZAS - outback
p605
sg12
I430
sa(dp606
g3
V
sg4
VThe Outbacker Burger Without Cheese
p607
sg6
VOutback Steakhouse
p608
sg8
I130
sg9
I620
sg10
VBURGERS & SANDWICHES - The Outbacker Burger
p609
sg12
I830
sa(dp610
g3
VMilled Rice (87%), Maize Meal (12%), (Spinach, Beetroot) (1%). Gluten free.
p611
sg4
VVegetable Pasta Shapes, Kids, Outback Animals
p612
sg6
VOrgran
p613
sg8
I0
sg9
I131
sg10
VKids, Outback Animals
p614
sg12
I4
sa(dp615
g3
V
sg4
VBloomin' Onion
p616
sg6
VOutback Steakhouse
p617
sg8
I130
sg9
I1950
sg10
VAUSSIE-TIZERS TO SHARE - Bloomin' Onion&reg;
p618
sg12
I3840
sa(dp619
g3
V
sg4
VFirecracker Salmon
p620
sg6
VOutback Steakhouse
p621
sg8
I70
sg9
I480
sg10
V
sg12
I870
sa(dp622
g3
V
sg4
VPork Porterhouse
p623
sg6
VOutback Steakhouse
p624
sg8
I175
sg9
I510
sg10
V
sg12
I1380
sa(dp625
g3
V
sg4
VRibeye Melt
p626
sg6
VOutback Steakhouse
p627
sg8
I190
sg9
I1030
sg10
V
sg12
I1600
sa(dp628
g3
V
sg4
VAussie Fries
p629
sg6
VOutback Steakhouse
p630
sg8
I15
sg9
I320
sg10
VFRESHLY MADE SIDES - Aussie Fries
p631
sg12
I410
sa(dp632
g3
V
sg4
VCaesar Salad
p633
sg6
VOutback Steakhouse
p634
sg8
I5
sg9
I100
sg10
VFRESHLY MADE SIDES - Caesar Salad
p635
sg12
I130
sa(dp636
g3
V
sg4
VDouble Burger
p637
sg6
VOutback Steakhouse
p638
sg8
I155
sg9
I930
sg10
VBURGERS & SANDWICHES - Double Burger
p639
sg12
I1280
sa(dp640
g3
V
sg4
VSauteed Mushrooms
p641
sg6
VOutback Steakhouse
p642
sg8
I0
sg9
I130
sg10
V
sg12
I680
sa(dp643
g3
V
sg4
VGarlic Mashed Potatoes
p644
sg6
VOutback Steakhouse
p645
sg8
I10
sg9
I280
sg10
VFRESHLY MADE SIDES - Garlic Mashed Potatoes
p646
sg12
I1040
sa(dp647
g3
V
sg4
VThe Bloomin' Burger
p648
sg6
VOutback Steakhouse
p649
sg8
I180
sg9
I1080
sg10
V
sg12
I1830
sa(dp650
g3
V
sg4
VTomato Mozzarella Caprese
p651
sg6
VOutback Steakhouse
p652
sg8
I40
sg9
I600
sg10
V
sg12
I980
sa(dp653
g3
V
sg4
VChicken Tender Platter
p654
sg6
VOutback Steakhouse
p655
sg8
I125
sg9
I1010
sg10
V
sg12
I1620
sa(dp656
g3
V
sg4
VWings
p657
sg6
VOutback Steakhouse
p658
sg8
I240
sg9
I1160
sg10
VAUSSIE-TIZERS TO SHARE - Wings
p659
sg12
I2450
sa(dp660
g3
V
sg4
VGrilled Asparagus
p661
sg6
VOutback Steakhouse
p662
sg8
I0
sg9
I60
sg10
VFRESHLY MADE SIDES - Grilled Asparagus
p663
sg12
I220
sa(dp664
g3
V
sg4
VBloom Petals
p665
sg6
VOutback Steakhouse
p666
sg8
I35
sg9
I550
sg10
V
sg12
I1040
sa(dp667
g3
V
sg4
VBroccoli & Cheese
p668
sg6
VOutback Steakhouse
p669
sg8
I65
sg9
I380
sg10
V
sg12
I940
sa(dp670
g3
V
sg4
VAlice Springs Chicken
p671
sg6
VOutback Steakhouse
p672
sg8
I205
sg9
I750
sg10
VOUTBACK FAVORITES - Alice Springs Chicken&reg;
p673
sg12
I1550
sa(dp674
g3
V
sg4
VTeriyaki Steak Medallions
p675
sg6
VOutback Steakhouse
p676
sg8
I100
sg9
I310
sg10
VSPECIALTY CUTS & COMBOS - Teriyaki Filet Medallions
p677
sg12
I1070
sa(dp678
g3
V
sg4
VFrench Onion Soup
p679
sg6
VOutback Steakhouse
p680
sg8
I50
sg9
I420
sg10
V
sg12
I2120
sa(dp681
g3
V
sg4
VAussie Chicken Tacos
p682
sg6
VOutback Steakhouse
p683
sg8
I195
sg9
I1040
sg10
V
sg12
I1780
sa(dp684
g3
V
sg4
VLoaded Mashed Potatoes
p685
sg6
VOutback Steakhouse
p686
sg8
I25
sg9
I350
sg10
V
sg12
I1190
sa(dp687
g3
V
sg4
VAussie Fish Tacos
p688
sg6
VOutback Steakhouse
p689
sg8
I125
sg9
I870
sg10
V
sg12
I1290
sa(dp690
g3
V
sg4
VSteakhouse Mac & Cheese
p691
sg6
VOutback Steakhouse
p692
sg8
I140
sg9
I840
sg10
V
sg12
I1630
sa(dp693
g3
V
sg4
VGreat Barrier Trio
p694
sg6
VOutback Steakhouse
p695
sg8
I105
sg9
I690
sg10
VAussietizers - Crab Stack
p696
sg12
I1620
sa(dp697
g3
V
sg4
VBaby Back Ribs
p698
sg6
VOutback Steakhouse
p699
sg8
I200
sg9
I880
sg10
VOutback Favorites - Baby Back Ribs Full Order
p700
sg12
I940
sa(dp701
g3
V
sg4
VFresh Steamed Broccoli
p702
sg6
VOutback Steakhouse
p703
sg8
I0
sg9
I140
sg10
VFRESHLY MADE SIDES - Fresh Steamed Broccoli
p704
sg12
I290
sa(dp705
g3
V
sg4
VBlue Cheese Crumbles
p706
sg6
VOutback Steakhouse
p707
sg8
I15
sg9
I100
sg10
VAdd On Mates - Blue Cheese Crumb Topping
p708
sg12
I340
sa(dp709
g3
V
sg4
VCrab & Avocado Stack
p710
sg6
VOutback Steakhouse
p711
sg8
I65
sg9
I580
sg10
VAUSSIE-TIZERS TO SHARE - Crab & Avocado Stack - Aussi-tizers&reg; to Share
p712
sg12
I1320
sa(dp713
g3
V
sg4
VNew Zealand Lamb
p714
sg6
VOutback Steakhouse
p715
sg8
I165
sg9
I600
sg10
VOUTBACK FAVORITES - New Zealand Rack Of Lamb
p716
sg12
I700
sa(dp717
g3
V
sg4
VBloom Petals Topping
p718
sg6
VOutback Steakhouse
p719
sg8
I5
sg9
I100
sg10
V
sg12
I190
sa(dp720
g3
V
sg4
VAussie Steak Tacos
p721
sg6
VOutback Steakhouse
p722
sg8
I195
sg9
I1120
sg10
V
sg12
I1580
sa.