(lp0
I65
aI71
aI25
aI0
aI10
aI26
aI62
aI104
aI0
aI0
aI10
aI128
aI51
aI132
aI86
aI51
aI56
aI12
aI27
aI30
aI52
aI27
aI48
aI175
aI118
aI78
aI16
aI35
aI36
aI42
aI39
aI0
aI46
aI9
aI4
aI16
aI0
aI148
aI36
aI51
aI36
aI100
aI116
aI0
aI237
aI17
aI69
aI4
aI80
aI53
aI36
aI13
aI59
aI193
aI0
aI40
aI394
aI159
aI69
aI38
aI48
aI2
aI196
aI78
aI35
aI44
aI63
aI159
aI52
aI72
aI24
aI46
aI35
aI56
aI57
aI110
aI31
aI128
aI260
aI41
aI168
aI65
aI36
aI8
aI11
aI82
aI23
aI38
aI0
aI100
aI124
aI56
aI147
aI95
aI96
aI108
aI102
aI143
aI63
aI24
aI31
aI103
aI45
aI109
aI66
aI100
aI4
aI0
aI8
aI0
aI8
aI62
aI44
aI19
aI25
aI124
aI0
aI44
aI71
aI121
aI0
aI6
aI132
aI117
aI143
aI0
aI24
aI20
aI31
aI46
aI111
aI52
aI0
aI198
aI65
aI127
aI24
aI57
aI99
aI54
aI56
aI35
aI17
aI0
aI56
aI9
aI31
aI39
aI54
aI136
aI34
aI45
aI14
aI85
aI8
aI47
aI55
aI5
aI181
aI16
aI82
aI32
aI0
aI28
aI163
aI52
aI187
aI65
aI76
aI67
aI38
aI18
aI140
aI6
aI76
aI106
aI22
aI10
aI100
aI119
aI319
aI12
aI65
aI44
aI8
aI55
aI66
aI4
aI67
aI23
aI72
aI90
aI16
aI121
aI68
aI48
aI86
aI103
aI31
aI50
aI86
aI31
aI46
aI263
aI14
aI0
aI37
aI55
aI115
aI44
aI42
aI63
aI72
aI87
aI81
aI31
aI480
aI129
aI18
aI0
aI16
aI9
aI84
aI122
aI17
aI65
aI79
aI37
aI8
aI115
aI45
aI79
aI8
aI86
aI0
aI145
aI36
aI71
aI48
aI78
aI127
aI31
aI37
aI105
aI102
aI108
aI112
aI55
aI67
aI41
aI10
aI57
aI0
aI27
aI139
aI233
aI204
aI86
aI97
aI13
aI50
aI20
aI16
aI39
aI38
aI20
aI41
aI22
aI12
aI34
aI10
aI56
aI76
aI0
aI125
aI76
aI353
aI445
aI180
aI256
aI49
aI89
aI67
aI258
aI19
aI46
aI77
aI24
aI74
aI52
aI50
aI173
aI115
aI140
aI43
aI259
aI73
aI98
aI117
aI138
aI59
aI283
aI13
aI245
aI106
aI53
aI66
aI34
aI128
aI187
aI64
aI77
aI203
aI67
aI101
aI86
aI68
aI169
aI0
aI38
aI56
aI159
aI86
aI30
aI68
aI108
aI82
aI96
aI117
aI103
aI110
aI129
aI105
aI112
aI41
aI0
aI173
aI56
aI38
aI69
aI61
aI63
aI68
aI99
aI76
aI119
aI62
aI120
aI86
aI104
aI51
aI36
aI225
aI97
aI61
aI59
aI183
aI71
aI112
aI46
aI59
aI55
aI63
aI98
aI31
aI54
aI63
aI68
aI71
aI26
aI32
aI131
aI118
aI354
aI112
aI129
aI132
aI85
aI130
aI242
aI173
aI97
aI85
aI118
aI144
aI82
aI197
aI73
aI12
aI95
aI27
aI195
aI165
aI179
aI96
aI138
aI103
aI145
aI93
aI157
aI8
aI61
aI119
aI88
aI144
aI91
aI88
aI130
aI131
aI49
aI43
aI9
aI222
aI65
aI218
aI37
aI112
aI127
aI124
aI137
aI68
aI55
aI74
aI86
aI179
aI90
aI73
aI111
aI254
aI69
aI75
aI103
aI77
aI73
aI115
aI79
aI84
aI173
aI59
aI61
aI115
aI167
aI192
aI182
aI65
aI127
aI67
aI145
aI233
aI129
aI80
aI224
aI170
aI54
aI173
aI230
aI94
aI154
aI103
aI128
aI158
aI121
aI0
aI102
aI204
aI36
aI40
aI180
aI143
aI59
aI120
aI109
aI103
aI78
aI0
aI193
aI69
aI65
aI61
aI195
aI1
aI65
aI96
aI66
aI362
aI65
aI23
aI109
aI59
aI79
aI70
aI65
aI53
aI486
aI97
aI81
aI165
aI208
aI122
aI118
aI159
aI173
aI138
aI230
aI354
aI98
aI108
aI39
aI79
aI99
aI47
aI103
aI112
aI110
aI152
aI50
aI168
aI51
aI135
aI110
aI181
aI222
aI74
aI47
aI10
aI19
aI65
aI84
aI130
aI3
aI134
aI277
aI117
aI184
aI149
aI81
aI97
aI75
aI59
aI58
aI241
aI215
aI308
aI159
aI67
aI89
aI83
aI65
aI90
aI152
aI111
aI71
aI51
aI110
aI138
aI14
aI90
aI97
aI107
aI66
aI88
aI63
aI140
aI406
aI104
aI63
aI45
aI79
aI80
aI99
aI45
aI239
aI85
aI128
aI108
aI27
aI98
aI96
aI63
aI39
aI37
aI37
aI85
aI48
aI185
aI90
aI68
aI31
aI65
aI74
aI67
aI127
aI397
aI34
aI97
aI26
aI57
aI68
aI106
aI175
aI101
aI65
aI61
aI111
aI150
aI63
aI256
aI16
aI99
aI56
aI53
aI173
aI58
aI315
aI31
aI109
aI157
aI80
aI284
aI68
aI117
aI30
aI156
aI74
aI52
aI18
aI342
aI71
aI23
aI68
aI100
aI81
aI65
aI249
aI51
aI159
aI29
aI107
aI117
aI113
aI108
aI336
aI220
aI88
aI173
aI83
aI31
aI59
aI6
aI81
aI80
aI193
aI164
aI24
aI359
aI71
aI37
aI32
aI47
aI68
aI167
aI87
aI139
aI65
aI65
aI65
aI62
aI41
aI309
aI210
aI36
aI65
aI63
aI147
aI98
aI77
aI112
aI68
aI148
aI57
aI72
aI127
aI37
aI154
aI115
aI62
aI73
aI112
aI49
aI11
aI87
aI221
aI48
aI89
aI70
aI29
aI116
aI51
aI68
aI65
aI188
aI110
aI208
aI138
aI56
aI150
aI52
aI103
aI65
aI91
aI99
aI131
aI127
aI165
aI56
aI99
aI46
aI0
aI92
aI159
aI37
aI169
aI103
aI323
aI81
aI53
aI48
aI145
aI37
aI128
aI173
aI133
aI128
aI223
aI90
aI164
aI105
aI211
aI155
aI98
aI59
aI166
aI118
aI83
aI195
aI322
aI247
aI57
aI64
aI53
aI93
aI133
aI155
aI192
aI68
aI79
aI75
aI47
aI125
aI33
aI85
aI80
aI89
aI111
aI82
aI165
aI53
aI138
aI88
aI108
aI27
aI88
aI66
aI59
aI0
aI4
aI98
aI85
aI105
aI67
aI181
aI53
aI108
aI139
aI68
aI64
aI49
aI203
aI151
aI122
aI74
aI111
aI101
aI223
aI128
aI50
aI127
aI145
aI90
aI79
aI137
aI381
aI265
aI17
aI63
aI284
aI59
aI79
aI126
aI265
aI96
aI81
aI186
aI37
aI71
aI66
aI158
aI150
aI83
aI143
aI134
aI52
aI55
aI86
aI270
aI41
aI100
aI34
aI75
aI36
aI86
aI230
aI85
aI65
aI169
aI111
aI208
aI36
aI205
aI70
aI109
aI40
aI37
aI66
aI68
aI52
aI116
aI58
aI49
aI170
aI74
aI162
aI195
aI143
aI31
aI147
aI255
aI36
aI94
aI54
aI63
aI148
aI95
aI77
aI161
aI79
aI79
aI31
aI78
aI140
aI272
aI127
aI36
aI22
aI81
aI120
aI183
aI106
aI88
aI113
aI41
aI82
aI100
aI74
aI140
aI361
aI54
aI106
aI38
aI147
aI105
aI134
aI61
aI59
aI106
aI96
aI139
aI124
aI31
aI63
aI0
aI102
aI157
aI12
aI127
aI65
aI65
aI38
aI34
aI148
aI74
aI54
aI97
aI63
aI142
aI131
aI85
aI59
aI204
aI213
aI31
aI8
aI127
aI168
aI235
aI36
aI39
aI30
aI12
aI115
aI41
aI174
aI65
aI94
aI151
aI93
aI74
aI82
aI15
aI54
aI104
aI87
aI95
aI75
aI99
aI73
aI192
aI138
aI26
aI100
aI167
aI96
aI67
aI130
aI55
aI193
aI65
aI0
aI98
aI49
aI55
aI143
aI89
aI59
aI63
aI64
aI133
aI119
aI203
aI130
aI74
aI0
aI77
aI0
aI74
aI128
aI136
aI137
aI119
aI59
aI69
aI0
aI105
aI144
aI0
aI46
aI167
aI41
aI99
aI155
aI60
aI34
aI38
aI62
aI173
aI54
aI0
aI140
aI58
aI191
aI0
aI193
aI97
aI70
aI170
aI230
aI41
aI61
aI231
aI107
aI125
aI162
aI55
aI168
aI23
aI127
aI128
aI30
aI36
aI191
aI357
aI135
aI179
aI173
aI84
aI143
aI32
aI127
aI134
aI230
aI193
aI118
aI160
aI116
aI205
aI90
aI227
aI36
aI173
aI106
aI61
aI32
aI173
aI81
aI89
aI204
aI201
aI99
aI54
aI80
aI27
aI65
aI31
aI108
aI117
aI52
aI173
aI95
aI64
aI107
aI67
aI257
aI82
aI65
aI75
aI23
aI59
aI111
aI62
aI97
aI54
aI173
aI69
aI137
aI69
aI48
aI25
aI299
aI573
aI65
aI359
aI107
aI84
aI49
aI15
aI91
aI49
aI46
aI36
aI82
aI93
aI73
aI257
aI70
aI95
aI53
aI112
aI69
aI230
aI210
aI76
aI215
aI61
aI98
aI79
aI130
aI84
aI80
aI100
aI67
aI120
aI109
aI193
aI440
aI170
aI112
aI101
aI4
aI34
aI40
aI144
aI14
aI98
aI36
aI98
aI49
aI48
aI65
aI40
aI49
aI407
aI129
aI77
aI67
aI86
aI341
aI218
aI65
aI87
aI77
aI38
aI261
aI121
aI77
aI90
aI102
aI125
aI361
aI53
aI159
aI68
aI113
aI46
aI31
aI88
aI212
aI78
aI248
aI74
aI216
aI149
aI74
aI94
aI79
aI184
aI75
aI43
aI146
aI88
aI82
aI65
aI54
aI42
aI200
aI16
aI73
aI81
aI108
aI106
aI34
aI37
aI120
aI96
aI122
aI264
aI99
aI56
aI168
aI90
aI117
aI146
aI68
aI20
aI67
aI120
aI325
aI60
aI103
aI61
aI36
aI28
aI75
aI52
aI31
aI72
aI130
aI97
aI161
aI34
aI213
aI8
aI46
aI87
aI71
aI58
aI113
aI166
aI65
aI79
aI121
aI217
aI105
aI108
aI59
aI56
aI78
aI68
aI90
aI82
aI113
aI170
aI36
aI297
aI168
aI161
aI36
aI31
aI222
aI7
aI138
aI138
aI351
aI148
aI121
aI212
aI56
aI148
aI375
aI37
aI93
aI61
aI124
aI289
aI126
aI42
aI21
aI67
aI0
aI73
aI166
aI47
aI63
aI100
aI139
aI48
aI37
aI183
aI92
aI80
aI215
aI68
aI72
aI165
aI68
aI108
aI37
aI233
aI109
aI68
aI257
aI226
aI173
aI55
aI140
aI143
aI60
aI115
aI51
aI147
aI12
aI61
aI45
aI67
aI84
aI65
aI146
aI62
aI313
aI119
aI88
aI0
aI69
aI101
aI105
aI49
aI20
aI155
aI9
aI72
aI95
aI67
aI39
aI141
aI109
aI124
aI87
aI68
aI66
aI258
aI77
aI70
aI145
aI97
aI41
aI47
aI113
aI61
aI57
aI49
aI121
aI59
aI93
aI117
aI65
aI97
aI150
aI91
aI130
aI58
aI146
aI64
aI85
aI51
aI135
aI210
aI115
aI121
aI97
aI0
aI138
aI52
aI0
aI128
aI118
aI125
aI24
aI90
aI35
aI115
aI98
aI49
aI64
aI176
aI91
aI18
aI54
aI128
aI38
aI47
aI67
aI57
aI328
aI271
aI42
aI120
aI64
aI159
aI217
aI74
aI107
aI91
aI46
aI98
aI67
aI110
aI157
aI73
aI69
aI105
aI81
aI80
aI134
aI165
aI114
aI30
aI8
aI50
aI120
aI91
aI28
aI88
aI70
aI91
aI110
aI166
aI275
aI173
aI114
aI69
aI161
aI106
aI74
aI59
aI107
aI110
aI218
aI71
aI173
aI157
aI40
aI122
aI275
aI71
aI67
aI129
aI94
aI100
aI95
aI73
aI0
aI98
aI67
aI37
aI89
aI79
aI219
aI136
aI46
aI61
aI0
aI93
aI58
aI36
aI22
aI137
aI79
aI41
aI36
aI52
aI159
aI254
aI82
aI64
aI174
aI79
aI30
aI54
aI109
aI135
aI87
aI162
aI21
aI175
aI120
aI28
aI196
aI71
aI95
aI72
aI121
aI110
aI134
aI77
aI143
aI61
aI141
aI130
aI84
aI142
aI0
aI198
aI58
aI154
aI79
aI78
aI97
aI95
aI104
aI0
aI91
aI61
aI37
aI164
aI70
aI54
aI100
aI66
aI171
aI169
aI14
aI36
aI59
aI70
aI230
aI247
aI201
aI89
aI65
aI221
aI79
aI123
aI86
aI30
aI126
aI345
aI169
aI122
aI109
aI451
aI104
aI110
aI26
aI51
aI164
aI12
aI192
aI149
aI72
aI79
aI187
aI154
aI173
aI53
aI11
aI36
aI36
aI15
aI161
aI36
aI125
aI22
aI48
aI41
aI79
aI88
aI116
aI153
aI102
aI82
aI65
aI225
aI73
aI83
aI57
aI86
aI384
aI77
aI173
aI49
aI36
aI37
aI83
aI65
aI30
aI49
aI0
aI95
aI96
aI148
aI61
aI118
aI104
aI59
aI234
aI91
aI85
aI61
aI65
aI97
aI193
aI99
aI37
aI100
aI61
aI99
aI134
aI98
aI56
aI96
aI117
aI149
aI36
aI709
aI228
aI173
aI104
aI46
aI162
aI50
aI84
aI77
aI71
aI214
aI397
aI61
aI70
aI59
aI186
aI98
aI53
aI81
aI321
aI47
aI194
aI65
aI139
aI40
aI152
aI34
aI91
aI136
aI0
aI69
aI64
aI93
aI74
aI0
aI37
aI112
aI108
aI255
aI348
aI285
aI96
aI85
aI39
aI290
aI92
aI127
aI36
aI36
aI208
aI78
aI107
aI12
aI84
aI205
aI171
aI346
aI190
aI124
aI164
aI173
aI160
aI81
aI67
aI70
aI97
aI154
aI52
aI123
aI356
aI75
aI155
aI72
aI79
aI15
aI117
aI156
aI121
aI74
aI193
aI170
aI230
aI68
aI50
aI126
aI117
aI108
aI2
aI112
aI355
aI84
aI127
aI63
aI126
aI101
aI77
aI208
aI96
aI42
aI161
aI188
aI181
aI34
aI68
aI65
aI65
aI98
aI173
aI119
aI105
aI67
aI130
aI127
aI192
aI32
aI60
aI99
aI35
aI144
aI36
aI67
aI75
aI128
aI0
aI59
aI133
aI62
aI86
aI54
aI42
aI317
aI159
aI40
aI87
aI91
aI78
aI127
aI227
aI145
aI79
aI93
aI36
aI136
aI28
aI68
aI0
aI67
aI177
aI79
aI82
aI163
aI59
aI132
aI82
aI46
aI97
aI113
aI359
aI173
aI92
aI76
aI0
aI130
aI84
aI161
aI55
aI69
aI59
aI79
aI111
aI71
aI237
aI101
aI65
aI59
aI44
aI68
aI76
aI8
aI99
aI37
aI199
aI156
aI74
aI93
aI59
aI88
aI48
aI96
aI105
aI50
aI199
aI39
aI173
aI72
aI66
aI80
aI29
aI125
aI119
aI71
aI124
aI66
aI47
aI279
aI348
aI0
aI118
aI69
aI124
aI213
aI65
aI86
aI44
aI67
aI212
aI59
aI59
aI253
aI59
aI94
aI95
aI101
aI148
aI76
aI53
aI56
aI75
aI110
aI276
aI74
aI133
aI99
aI20
aI66
aI74
aI184
aI92
aI128
aI115
aI97
aI170
aI80
aI383
aI183
aI260
aI38
aI65
aI166
aI95
aI63
aI44
aI95
aI162
aI98
aI46
aI143
aI90
aI124
aI109
aI107
aI92
aI127
aI37
aI86
aI49
aI312
aI104
aI142
aI38
aI0
aI130
aI41
aI127
aI66
aI70
aI93
aI91
aI135
aI123
aI117
aI89
aI116
aI63
aI90
aI39
aI88
aI166
aI122
aI80
aI210
aI170
aI37
aI123
aI36
aI97
aI42
aI127
aI129
aI206
aI116
aI85
aI12
aI176
aI107
aI88
aI271
aI127
aI162
aI50
aI83
aI111
aI92
aI189
aI121
aI77
aI31
aI75
aI118
aI143
aI118
aI58
aI0
aI106
aI64
aI190
aI142
aI84
aI0
aI13
aI396
aI39
aI0
aI177
aI113
aI91
aI204
aI95
aI116
aI68
aI136
aI48
aI61
aI89
aI81
aI166
aI138
aI60
aI173
aI99
aI151
aI129
aI48
aI310
aI121
aI122
aI33
aI118
aI148
aI93
aI113
aI108
aI104
aI59
aI101
aI70
aI27
aI122
aI30
aI106
aI41
aI234
aI127
aI59
aI100
aI73
aI0
aI98
aI63
aI170
aI66
aI82
aI110
aI82
aI124
aI39
aI34
aI89
aI142
aI70
aI79
aI157
aI97
aI234
aI65
aI94
aI97
aI201
aI89
aI62
aI58
aI8
aI33
aI107
aI10
aI75
aI108
aI59
aI215
aI71
aI183
aI230
aI65
aI184
aI272
aI67
aI9
aI290
aI30
aI62
aI31
aI63
aI0
aI157
aI169
aI0
aI65
aI192
aI134
aI90
aI193
aI39
aI136
aI168
aI89
aI39
aI94
aI42
aI173
aI39
aI105
aI56
aI91
aI154
aI131
aI34
aI89
aI128
aI107
aI19
aI88
aI61
aI79
aI35
aI85
aI235
aI45
aI129
aI85
aI52
aI133
aI103
aI68
aI124
aI104
aI37
aI123
aI69
aI36
aI98
aI162
aI0
aI44
aI55
aI72
aI71
aI168
aI97
aI169
aI148
aI97
aI80
aI50
aI68
aI37
aI98
aI196
aI289
aI117
aI31
aI41
aI88
aI107
aI207
aI247
aI24
aI92
aI71
aI2
aI136
aI80
aI19
aI90
aI35
aI38
aI157
aI59
aI67
aI115
aI104
aI36
aI0
aI76
aI85
aI93
aI109
aI174
aI57
aI63
aI13
aI13
aI82
aI58
aI26
aI106
aI65
aI97
aI107
aI67
aI72
aI45
aI90
aI65
aI99
aI70
aI39
aI156
aI224
aI125
aI67
aI159
aI74
aI95
aI103
aI80
aI262
aI166
aI345
aI91
aI59
aI92
aI37
aI127
aI66
aI12
aI109
aI131
aI54
aI128
aI131
aI108
aI106
aI37
aI140
aI92
aI96
aI71
aI82
aI170
aI76
aI61
aI126
aI162
aI73
aI67
aI107
aI102
aI194
aI30
aI417
aI283
aI90
aI203
aI173
aI75
aI70
aI67
aI389
aI48
aI36
aI59
aI138
aI230
aI131
aI107
aI23
aI8
aI76
aI80
aI119
aI147
aI232
aI92
aI16
aI48
aI441
aI77
aI247
aI74
aI8
aI79
aI14
aI15
aI74
aI218
aI95
aI184
aI53
aI159
aI136
aI0
aI161
aI216
aI303
aI164
aI27
aI118
aI153
aI53
aI78
aI132
aI64
aI15
aI81
aI23
aI84
aI89
aI95
aI21
aI173
aI94
aI52
aI50
aI65
aI31
aI144
aI99
aI83
aI74
aI153
aI146
aI53
aI241
aI110
aI58
aI96
aI27
aI57
aI31
aI66
aI58
aI48
aI71
aI94
aI81
aI73
aI56
aI63
aI109
aI108
aI0
aI104
aI25
aI279
aI67
aI126
aI81
aI128
aI90
aI60
aI18
aI197
aI9
aI62
aI25
aI0
aI62
aI183
aI46
aI68
aI47
aI110
aI61
aI105
aI161
aI16
aI25
aI96
aI57
aI20
aI157
aI76
aI141
aI20
aI46
aI130
aI54
aI68
aI111
aI190
aI96
aI255
aI144
aI74
aI0
aI59
aI122
aI116
aI45
aI66
aI218
aI64
aI42
aI45
aI85
aI111
aI139
aI220
aI66
aI77
aI120
aI27
aI51
aI56
aI97
aI90
aI97
aI131
aI25
aI154
aI272
aI129
aI73
aI0
aI112
aI10
aI46
aI14
aI154
aI144
aI40
aI103
aI26
aI51
aI192
aI52
aI13
aI129
aI171
aI209
aI52
aI98
aI84
aI95
aI39
aI44
aI40
aI20
aI141
aI97
aI85
aI43
aI134
aI96
aI139
aI52
aI25
aI25
aI36
aI77
aI75
aI95
aI59
aI74
aI65
aI16
aI68
aI179
aI127
aI142
aI75
aI39
aI34
aI85
aI82
aI3
aI14
aI244
aI76
aI403
aI85
aI76
aI69
aI126
aI32
aI51
aI179
aI59
aI59
aI225
aI95
aI66
aI60
aI72
aI0
aI20
aI131
aI41
aI13
aI53
aI70
aI4
aI96
aI81
aI143
aI113
aI15
aI154
aI38
aI70
aI11
aI48
aI33
aI65
aI100
aI61
aI42
aI116
aI74
aI88
aI92
aI46
aI74
aI70
aI31
aI108
aI0
aI157
aI69
aI93
aI133
aI14
aI67
aI65
aI80
aI62
aI99
aI69
aI92
aI109
aI98
aI77
aI47
aI105
aI61
aI67
aI15
aI68
aI0
aI136
aI121
aI74
aI87
aI72
aI99
aI35
aI15
aI50
aI59
aI85
aI57
aI152
aI77
aI79
aI71
aI0
aI78
aI42
aI56
aI51
aI55
aI75
aI23
aI0
aI133
aI46
aI51
aI7
aI45
aI8
aI194
aI111
aI103
aI77
aI142
aI36
aI84
aI61
aI157
aI251
aI146
aI90
aI133
aI47
aI72
aI67
aI70
aI67
aI77
aI89
aI66
aI97
aI81
aI9
aI42
aI128
aI57
aI94
aI134
aI14
aI164
aI185
aI56
aI77
aI82
aI56
aI72
aI210
aI71
aI166
aI148
aI59
aI81
aI144
aI94
aI83
aI15
aI0
aI32
aI108
aI120
aI122
aI0
aI24
aI144
aI4
aI234
aI217
aI115
aI95
aI0
aI289
aI46
aI41
aI86
aI116
aI45
aI161
aI125
aI185
aI53
aI70
aI54
aI0
aI100
aI21
aI13
aI187
aI144
aI106
aI71
aI71
aI125
aI95
aI4
aI49
aI44
aI124
aI98
aI93
aI51
aI82
aI59
aI33
aI84
aI130
aI72
aI58
aI95
aI67
aI69
aI71
aI52
aI35
aI99
aI68
aI67
aI57
aI20
aI60
aI64
aI124
aI16
aI40
aI78
aI97
aI4
aI137
aI115
aI110
aI69
aI67
aI121
aI103
aI239
aI162
aI69
aI104
aI36
aI80
aI89
aI50
aI69
aI46
aI187
aI38
aI91
aI18
aI195
aI8
aI43
aI18
aI36
aI112
aI81
aI70
aI74
aI149
aI50
aI108
aI54
aI46
aI46
aI61
aI73
aI174
aI83
aI58
aI59
aI46
aI81
aI55
aI2
aI57
aI98
aI89
aI48
aI150
aI94
aI99
aI76
aI142
aI106
aI110
aI61
aI36
aI145
aI0
aI84
aI70
aI0
aI65
aI70
aI30
aI20
aI40
aI133
aI127
aI33
aI70
aI145
aI100
aI62
aI69
aI187
aI49
aI14
aI85
aI95
aI50
aI49
aI91
aI41
aI172
aI68
aI47
aI0
aI27
aI120
aI0
aI41
aI84
aI47
aI44
aI138
aI47
aI39
aI78
aI48
aI82
aI69
aI47
aI16
aI79
aI124
aI75
aI198
aI128
aI48
aI82
aI66
aI95
aI192
aI9
aI59
aI70
aI104
aI67
aI120
aI100
aI52
aI37
aI50
aI95
aI32
aI67
aI104
aI85
aI103
aI47
aI56
aI69
aI81
aI74
aI107
aI67
aI127
aI41
aI59
aI85
aI84
aI294
aI0
aI21
aI51
aI102
aI86
aI124
aI0
aI79
aI61
aI154
aI67
aI136
aI216
aI85
aI145
aI0
aI108
aI112
aI108
aI0
aI122
aI52
aI127
aI61
aI91
aI76
aI87
aI4
aI86
aI132
aI71
aI59
aI116
aI95
aI72
aI194
aI69
aI117
aI93
aI63
aI78
aI50
aI39
aI58
aI56
aI142
aI266
aI60
aI16
aI79
aI94
aI147
aI149
aI64
aI96
aI160
aI37
aI21
aI32
aI2
aI76
aI57
aI127
aI17
aI42
aI151
aI73
aI56
aI69
aI45
aI221
aI114
aI88
aI95
aI67
aI87
aI47
aI72
aI19
aI54
aI49
aI40
aI117
aI8
aI70
aI32
aI75
aI73
aI0
aI28
aI14
aI78
aI30
aI98
aI8
aI117
aI36
aI34
aI132
aI163
aI55
aI59
aI118
aI111
aI65
aI81
aI121
aI93
aI83
aI77
aI0
aI128
aI36
aI54
aI72
aI23
aI16
aI15
aI118
aI86
aI24
aI30
aI40
aI73
aI29
aI0
aI83
aI148
aI193
aI50
aI63
aI142
aI61
aI110
aI115
aI77
aI92
aI98
aI215
aI35
aI60
aI125
aI138
aI67
aI158
aI149
aI6
aI90
aI81
aI124
aI9
aI67
aI84
aI87
aI0
aI68
aI125
aI221
aI8
aI40
aI111
aI109
aI101
aI0
aI95
aI173
aI0
aI27
aI67
aI25
aI133
aI110
aI26
aI270
aI67
aI21
aI59
aI51
aI57
aI16
aI44
aI40
aI177
aI153
aI88
aI40
aI53
aI40
aI36
aI95
aI96
aI81
aI79
aI47
aI98
aI31
aI0
aI85
aI33
aI110
aI94
aI48
aI15
aI89
aI62
aI106
aI108
aI175
aI60
aI0
aI39
aI74
aI59
aI0
aI39
aI39
aI107
aI0
aI101
aI102
aI193
aI11
aI0
aI89
aI129
aI72
aI97
aI83
aI121
aI25
aI180
aI113
aI101
aI49
aI39
aI56
aI204
aI22
aI58
aI82
aI36
aI97
aI83
aI56
aI160
aI137
aI114
aI42
aI73
aI112
aI63
aI32
aI66
aI59
aI112
aI61
aI73
aI78
aI66
aI78
aI34
aI1
aI113
aI67
aI9
aI47
aI103
aI115
aI63
aI41
aI56
aI156
aI8
aI37
aI70
aI80
aI39
aI107
aI22
aI100
aI169
aI73
aI8
aI59
aI73
aI85
aI25
aI56
aI123
aI169
aI90
aI143
aI69
aI13
aI35
aI42
aI179
aI47
aI149
aI83
aI73
aI96
aI123
aI50
aI98
aI117
aI101
aI426
aI55
aI0
aI111
aI105
aI111
aI119
aI129
aI36
aI75
aI164
aI81
aI68
aI58
aI36
aI61
aI47
aI168
aI120
aI10
aI115
aI258
aI192
aI0
aI149
aI40
aI126
aI137
aI68
aI82
aI61
aI2
aI84
aI47
aI17
aI186
aI89
aI113
aI20
aI144
aI47
aI49
aI61
aI217
aI118
aI70
aI59
aI108
aI39
aI48
aI60
aI48
aI112
aI50
aI6
aI96
aI137
aI96
aI11
aI100
aI52
aI72
aI96
aI23
aI32
aI88
aI53
aI108
aI134
aI66
aI36
aI2
aI51
aI59
aI174
aI36
aI61
aI96
aI124
aI54
aI105
aI375
aI46
aI162
aI56
aI397
aI109
aI114
aI134
aI55
aI95
aI227
aI23
aI0
aI129
aI128
aI57
aI3
aI62
aI138
aI58
aI73
aI51
aI39
aI74
aI98
aI34
aI41
aI86
aI132
aI145
aI58
aI155
aI59
aI72
aI77
aI172
aI186
aI62
aI92
aI3
aI26
aI53
aI80
aI55
aI47
aI0
aI48
aI76
aI88
aI81
aI37
aI56
aI109
aI26
aI174
aI93
aI40
aI87
aI83
aI48
aI31
aI94
aI64
aI68
aI163
aI55
aI68
aI124
aI50
aI98
aI106
aI89
aI194
aI71
aI120
aI327
aI285
aI355
aI34
aI57
aI41
aI5
aI30
aI59
aI122
aI207
aI73
aI84
aI47
aI101
aI27
aI90
aI14
aI308
aI46
aI18
aI30
aI111
aI91
aI132
aI72
aI80
aI67
aI81
aI87
aI13
aI107
aI69
aI93
aI68
aI86
aI61
aI151
aI21
aI200
aI58
aI64
aI0
aI6
aI40
aI27
aI5
aI49
aI65
aI67
aI106
aI47
aI60
aI95
aI31
aI8
aI61
aI0
aI47
aI158
aI77
aI53
aI50
aI52
aI71
aI65
aI17
aI83
aI38
aI26
aI74
aI144
aI41
aI41
aI27
aI55
aI69
aI89
aI72
aI51
aI194
aI98
aI31
aI65
aI69
aI27
aI127
aI90
aI59
aI68
aI181
aI31
aI40
aI15
aI46
aI80
aI70
aI117
aI118
aI61
aI66
aI268
aI87
aI20
aI68
aI92
aI16
aI29
aI16
aI67
aI3
aI111
aI165
aI46
aI116
aI9
aI69
aI71
aI109
aI81
aI135
aI284
aI260
aI51
aI50
aI73
aI37
aI41
aI71
aI92
aI98
aI142
aI139
aI155
aI51
aI33
aI78
aI66
aI129
aI26
aI359
aI4
aI57
aI47
aI94
aI53
aI87
aI57
aI5
aI71
aI77
aI111
aI69
aI144
aI58
aI48
aI38
aI117
aI113
aI72
aI30
aI105
aI65
aI116
aI38
aI69
aI155
aI46
aI86
aI65
aI101
aI134
aI28
aI73
aI119
aI175
aI47
aI142
aI91
aI92
aI65
aI69
aI43
aI83
aI55
aI15
aI5
aI71
aI71
aI272
aI68
aI70
aI48
aI73
aI110
aI88
aI37
aI291
aI46
aI177
aI89
aI64
aI74
aI48
aI104
aI132
aI93
aI110
aI220
aI328
aI25
aI224
aI71
aI108
aI124
aI70
aI8
aI57
aI0
aI19
aI131
aI33
aI29
aI92
aI2
aI0
aI68
aI187
aI89
aI17
aI39
aI122
aI59
aI19
aI0
aI85
aI78
aI24
aI108
aI5
aI42
aI6
aI15
aI6
aI96
aI62
aI83
aI650
aI74
aI101
aI108
aI35
aI113
aI74
aI76
aI122
aI27
aI15
aI81
aI67
aI62
aI69
aI36
aI110
aI124
aI19
aI46
aI53
aI95
aI74
aI93
aI55
aI124
aI188
aI61
aI0
aI74
aI148
aI0
aI38
aI49
aI93
aI82
aI84
aI83
aI41
aI49
aI59
aI50
aI41
aI115
aI49
aI50
aI64
aI57
aI35
aI75
aI68
aI0
aI0
aI31
aI104
aI48
aI58
aI17
aI81
aI98
aI115
aI32
aI73
aI22
aI39
aI45
aI74
aI103
aI46
aI87
aI28
aI184
aI149
aI119
aI36
aI99
aI41
aI50
aI75
aI291
aI76
aI142
aI100
aI66
aI50
aI71
aI96
aI100
aI34
aI347
aI79
aI81
aI124
aI73
aI45
aI56
aI65
aI156
aI62
aI73
aI33
aI220
aI264
aI69
aI70
aI78
aI179
aI43
aI174
aI67
aI113
aI91
aI33
aI88
aI62
aI88
aI67
aI0
aI168
aI89
aI5
aI0
aI41
aI156
aI96
aI30
aI243
aI417
aI68
aI0
aI116
aI55
aI70
aI65
aI4
aI23
aI77
aI127
aI61
aI134
aI0
aI75
aI128
aI167
aI92
aI47
aI40
aI94
aI71
aI119
aI95
aI84
aI51
aI63
aI93
aI92
aI68
aI51
aI42
aI57
aI31
aI61
aI83
aI110
aI82
aI123
aI87
aI73
aI58
aI71
aI53
aI135
aI65
aI60
aI144
aI11
aI69
aI100
aI110
aI82
aI51
aI162
aI93
aI105
aI4
aI15
aI1
aI88
aI64
aI23
aI160
aI59
aI121
aI127
aI83
aI18
aI41
aI157
aI63
aI56
aI46
aI50
aI9
aI51
aI63
aI32
aI64
aI74
aI63
aI99
aI51
aI76
aI36
aI66
aI131
aI86
aI144
aI88
aI62
aI131
aI77
aI96
aI48
aI136
aI43
aI11
aI59
aI91
aI89
aI55
aI61
aI163
aI30
aI35
aI22
aI58
aI37
aI211
aI0
aI94
aI81
aI212
aI66
aI90
aI15
aI86
aI39
aI59
aI86
aI79
aI139
aI67
aI112
aI19
aI54
aI210
aI67
aI129
aI105
aI45
aI41
aI3
aI79
aI0
aI96
aI59
aI100
aI16
aI106
aI53
aI59
aI0
aI43
aI28
aI120
aI0
aI73
aI71
aI89
aI67
aI79
aI117
aI81
aI11
aI112
aI86
aI75
aI83
aI77
aI84
aI68
aI67
aI74
aI201
aI54
aI146
aI120
aI51
aI151
aI97
aI121
aI84
aI142
aI116
aI97
aI145
aI63
aI41
aI340
aI60
aI146
aI27
aI104
aI153
aI234
aI212
aI46
aI114
aI145
aI201
aI182
aI37
aI69
aI205
aI73
aI147
aI97
aI137
aI162
aI142
aI59
aI126
aI85
aI30
aI77
aI229
aI97
aI105
aI100
aI97
aI91
aI129
aI120
aI145
aI102
aI66
aI140
aI99
aI190
aI227
aI117
aI73
aI127
aI143
aI94
aI146
aI71
aI239
aI288
aI44
aI128
aI137
aI174
aI182
aI73
aI105
aI137
aI78
aI210
aI82
aI194
aI129
aI146
aI108
aI2
aI67
aI38
aI198
aI129
aI25
aI97
aI4
aI69
aI273
aI297
aI316
aI47
aI139
aI33
aI129
aI108
aI117
aI142
aI255
aI116
aI53
aI67
aI61
aI8
aI205
aI67
aI130
aI34
aI150
aI213
aI96
aI146
aI72
aI0
aI195
aI62
aI97
aI3
aI141
aI71
aI55
aI170
aI286
aI340
aI156
aI170
aI23
aI263
aI53
aI76
aI61
aI129
aI138
aI40
aI192
aI240
aI165
aI167
aI129
aI121
aI215
aI90
aI52
aI239
aI99
aI138
aI228
aI158
aI13
aI145
aI145
aI21
aI71
aI88
aI97
aI82
aI38
aI66
aI51
aI208
aI116
aI129
aI226
aI97
aI198
aI67
aI113
aI228
aI145
aI181
aI37
aI194
aI145
aI188
aI211
aI214
aI128
aI129
aI64
aI118
aI92
aI112
a.